; Function Attrs: mustprogress uwtable
define hidden noundef range(i32 0, 2) i32 @_ZN3smt12theory_array21assert_delayed_axiomsEv(ptr noundef nonnull align 8 dereferenceable(444) %0) unnamed_addr #4 align 2 {
  %2 = getelementptr inbounds nuw i8, ptr %0, i64 264
  %3 = load ptr, ptr %2, align 8, !tbaa !574
  %4 = getelementptr inbounds nuw i8, ptr %3, i64 16
  %5 = load i8, ptr %4, align 4, !tbaa !593, !range !568, !noundef !569
  %6 = trunc nuw i8 %5 to i1
  br i1 %6, label %7, label %.loopexit

7:                                                ; preds = %1
  %8 = getelementptr inbounds nuw i8, ptr %0, i64 32
  %9 = load ptr, ptr %8, align 8, !tbaa !550
  %10 = icmp eq ptr %9, null
  br i1 %10, label %.loopexit, label %_ZNK3smt6theory12get_num_varsEv.exit

_ZNK3smt6theory12get_num_varsEv.exit:             ; preds = %7
  %11 = getelementptr inbounds i8, ptr %9, i64 -4
  %12 = load i32, ptr %11, align 4, !tbaa !560
  %.not = icmp eq i32 %12, 0
  br i1 %.not, label %.loopexit, label %.lr.ph

.lr.ph:                                           ; preds = %_ZNK3smt6theory12get_num_varsEv.exit
  %13 = getelementptr inbounds nuw i8, ptr %0, i64 256
  %14 = getelementptr inbounds nuw i8, ptr %0, i64 280
  %wide.trip.count = zext i32 %12 to i64
  br label %15

15:                                               ; preds = %.lr.ph, %_ZN3smt12theory_array23instantiate_axiom2b_forEi.exit.thread
  %indvars.iv = phi i64 [ 0, %.lr.ph ], [ %indvars.iv.next, %_ZN3smt12theory_array23instantiate_axiom2b_forEi.exit.thread ]
  %.0912 = phi i32 [ 0, %.lr.ph ], [ %.1, %_ZN3smt12theory_array23instantiate_axiom2b_forEi.exit.thread ]
  %16 = load ptr, ptr %13, align 8, !tbaa !6
  %17 = getelementptr inbounds nuw ptr, ptr %16, i64 %indvars.iv
  %18 = load ptr, ptr %17, align 8, !tbaa !561
  %19 = getelementptr inbounds nuw i8, ptr %18, i64 24
  %20 = load i8, ptr %19, align 8, !tbaa !566, !range !568, !noundef !569
  %21 = trunc nuw i8 %20 to i1
  br i1 %21, label %22, label %_ZN3smt12theory_array23instantiate_axiom2b_forEi.exit.thread

22:                                               ; preds = %15
  %23 = getelementptr inbounds nuw i8, ptr %18, i64 16
  %24 = load ptr, ptr %23, align 8, !tbaa !550
  %25 = icmp eq ptr %24, null
  br i1 %25, label %_ZN3smt12theory_array23instantiate_axiom2b_forEi.exit.thread, label %_ZN6vectorIPN3smt5enodeELb0EjE3endEv.exit.i

_ZN6vectorIPN3smt5enodeELb0EjE3endEv.exit.i:      ; preds = %22
  %26 = getelementptr inbounds i8, ptr %24, i64 -4
  %27 = load i32, ptr %26, align 4, !tbaa !560
  %28 = zext i32 %27 to i64
  %29 = getelementptr inbounds nuw ptr, ptr %24, i64 %28
  %.not26.i = icmp eq i32 %27, 0
  br i1 %.not26.i, label %_ZN3smt12theory_array23instantiate_axiom2b_forEi.exit.thread, label %.lr.ph29.i

.lr.ph29.i:                                       ; preds = %_ZN6vectorIPN3smt5enodeELb0EjE3endEv.exit.i
  %30 = getelementptr inbounds nuw i8, ptr %18, i64 8
  %31 = load ptr, ptr %30, align 8, !tbaa !550
  %32 = icmp eq ptr %31, null
  br i1 %32, label %_ZN3smt12theory_array23instantiate_axiom2b_forEi.exit.thread, label %.lr.ph29.i.split

.lr.ph29.i.splitthread-pre-split:                 ; preds = %._crit_edge.i
  %.pr = load ptr, ptr %30, align 8, !tbaa !550
  br label %.lr.ph29.i.split

.lr.ph29.i.split:                                 ; preds = %.lr.ph29.i, %.lr.ph29.i.splitthread-pre-split
  %33 = phi ptr [ %.pr, %.lr.ph29.i.splitthread-pre-split ], [ %31, %.lr.ph29.i ]
  %.028.i = phi i1 [ %.1.lcssa.i, %.lr.ph29.i.splitthread-pre-split ], [ false, %.lr.ph29.i ]
  %.01827.i = phi ptr [ %40, %.lr.ph29.i.splitthread-pre-split ], [ %24, %.lr.ph29.i ]
  %34 = load ptr, ptr %.01827.i, align 8, !tbaa !570
  %35 = icmp eq ptr %33, null
  br i1 %35, label %._crit_edge.i, label %_ZN6vectorIPN3smt5enodeELb0EjE3endEv.exit22.i

_ZN6vectorIPN3smt5enodeELb0EjE3endEv.exit22.i:    ; preds = %.lr.ph29.i.split
  %36 = getelementptr inbounds i8, ptr %33, i64 -4
  %37 = load i32, ptr %36, align 4, !tbaa !560
  %38 = zext i32 %37 to i64
  %39 = getelementptr inbounds nuw ptr, ptr %33, i64 %38
  %.not2023.i = icmp eq i32 %37, 0
  br i1 %.not2023.i, label %._crit_edge.i, label %.lr.ph.i

._crit_edge.i:                                    ; preds = %_ZN3smt12theory_array19instantiate_axiom2bEPNS_5enodeES2_.exit.i, %_ZN6vectorIPN3smt5enodeELb0EjE3endEv.exit22.i, %.lr.ph29.i.split
  %.1.lcssa.i = phi i1 [ %.028.i, %_ZN6vectorIPN3smt5enodeELb0EjE3endEv.exit22.i ], [ %.028.i, %.lr.ph29.i.split ], [ %46, %_ZN3smt12theory_array19instantiate_axiom2bEPNS_5enodeES2_.exit.i ]
  %40 = getelementptr inbounds nuw i8, ptr %.01827.i, i64 8
  %.not.i = icmp eq ptr %40, %29
  br i1 %.not.i, label %_ZN3smt12theory_array23instantiate_axiom2b_forEi.exit.loopexit14, label %.lr.ph29.i.splitthread-pre-split, !llvm.loop !636

.lr.ph.i:                                         ; preds = %_ZN6vectorIPN3smt5enodeELb0EjE3endEv.exit22.i, %_ZN3smt12theory_array19instantiate_axiom2bEPNS_5enodeES2_.exit.i
  %.125.i = phi i1 [ %46, %_ZN3smt12theory_array19instantiate_axiom2bEPNS_5enodeES2_.exit.i ], [ %.028.i, %_ZN6vectorIPN3smt5enodeELb0EjE3endEv.exit22.i ]
  %.01924.i = phi ptr [ %47, %_ZN3smt12theory_array19instantiate_axiom2bEPNS_5enodeES2_.exit.i ], [ %33, %_ZN6vectorIPN3smt5enodeELb0EjE3endEv.exit22.i ]
  %41 = load ptr, ptr %.01924.i, align 8, !tbaa !570
  %42 = tail call noundef zeroext i1 @_ZN3smt17theory_array_base19assert_store_axiom2EPNS_5enodeES2_(ptr noundef nonnull align 8 dereferenceable(444) %0, ptr noundef %34, ptr noundef %41)
  br i1 %42, label %43, label %_ZN3smt12theory_array19instantiate_axiom2bEPNS_5enodeES2_.exit.i

43:                                               ; preds = %.lr.ph.i
  %44 = load i32, ptr %14, align 8, !tbaa !594
  %45 = add i32 %44, 1
  store i32 %45, ptr %14, align 8, !tbaa !594
  br label %_ZN3smt12theory_array19instantiate_axiom2bEPNS_5enodeES2_.exit.i

_ZN3smt12theory_array19instantiate_axiom2bEPNS_5enodeES2_.exit.i: ; preds = %43, %.lr.ph.i
  %spec.select.i = phi i1 [ %.125.i, %.lr.ph.i ], [ true, %43 ]
  %46 = freeze i1 %spec.select.i
  %47 = getelementptr inbounds nuw i8, ptr %.01924.i, i64 8
  %.not20.i = icmp eq ptr %47, %39
  br i1 %.not20.i, label %._crit_edge.i, label %.lr.ph.i

_ZN3smt12theory_array23instantiate_axiom2b_forEi.exit.loopexit14: ; preds = %._crit_edge.i
  %48 = select i1 %.1.lcssa.i, i32 1, i32 %.0912
  br label %_ZN3smt12theory_array23instantiate_axiom2b_forEi.exit.thread

_ZN3smt12theory_array23instantiate_axiom2b_forEi.exit.thread: ; preds = %_ZN3smt12theory_array23instantiate_axiom2b_forEi.exit.loopexit14, %.lr.ph29.i, %22, %_ZN6vectorIPN3smt5enodeELb0EjE3endEv.exit.i, %15
  %.1 = phi i32 [ %.0912, %15 ], [ %.0912, %_ZN6vectorIPN3smt5enodeELb0EjE3endEv.exit.i ], [ %.0912, %22 ], [ %48, %_ZN3smt12theory_array23instantiate_axiom2b_forEi.exit.loopexit14 ], [ %.0912, %.lr.ph29.i ]
  %indvars.iv.next = add nuw nsw i64 %indvars.iv, 1
  %exitcond.not = icmp eq i64 %indvars.iv.next, %wide.trip.count
  br i1 %exitcond.not, label %.loopexit, label %15, !llvm.loop !637

.loopexit:                                        ; preds = %_ZN3smt12theory_array23instantiate_axiom2b_forEi.exit.thread, %7, %_ZNK3smt6theory12get_num_varsEv.exit, %1
  %.0 = phi i32 [ 0, %1 ], [ 0, %_ZNK3smt6theory12get_num_varsEv.exit ], [ 0, %7 ], [ %.1, %_ZN3smt12theory_array23instantiate_axiom2b_forEi.exit.thread ]
  ret i32 %.0
}